target datalayout = "e-m:e-p270:32:32-p271:32:32-p272:64:64-i64:64-i128:128-f80:128-n8:16:32:64-S128"
target triple = "x86_64-pc-linux-gnu"

%struct.dirent = type { i64, i64, i16, i8, [256 x i8] }

@wal_segment_size = dso_local global i32 16777216, align 4
@.str.22 = private unnamed_addr constant [7 x i8] c"pg_wal\00", align 1
@.str.118 = private unnamed_addr constant [13 x i8] c"%08X%08X%08X\00", align 1
@.str.119 = private unnamed_addr constant [17 x i8] c"0123456789ABCDEF\00", align 1

; Function Attrs: inlinehint nounwind uwtable
define internal void @XLogFromFileName(ptr noundef %0, ptr noundef %1, ptr noundef %2, i32 noundef %3) #6 {
  %5 = alloca ptr, align 8
  %6 = alloca ptr, align 8
  %7 = alloca ptr, align 8
  %8 = alloca i32, align 4
  %9 = alloca i32, align 4
  %10 = alloca i32, align 4
  store ptr %0, ptr %5, align 8
  store ptr %1, ptr %6, align 8
  store ptr %2, ptr %7, align 8
  store i32 %3, ptr %8, align 4
  call void @llvm.lifetime.start.p0(i64 4, ptr %9) #16
  call void @llvm.lifetime.start.p0(i64 4, ptr %10) #16
  %11 = load ptr, ptr %5, align 8
  %12 = load ptr, ptr %6, align 8
  %13 = call i32 (ptr, ptr, ...) @__isoc99_sscanf(ptr noundef %11, ptr noundef @.str.118, ptr noundef %12, ptr noundef %9, ptr noundef %10) #16
  %14 = load i32, ptr %9, align 4
  %15 = zext i32 %14 to i64
  %16 = load i32, ptr %8, align 4
  %17 = sext i32 %16 to i64
  %18 = udiv i64 4294967296, %17
  %19 = mul i64 %15, %18
  %20 = load i32, ptr %10, align 4
  %21 = zext i32 %20 to i64
  %22 = add i64 %19, %21
  %23 = load ptr, ptr %7, align 8
  store i64 %22, ptr %23, align 8
  call void @llvm.lifetime.end.p0(i64 4, ptr %10) #16
  call void @llvm.lifetime.end.p0(i64 4, ptr %9) #16
  ret void
}

; Function Attrs: inlinehint nounwind uwtable
define internal zeroext i1 @IsXLogFileName(ptr noundef %0) #6 {
  %2 = alloca ptr, align 8
  store ptr %0, ptr %2, align 8
  %3 = load ptr, ptr %2, align 8
  %4 = call i64 @strlen(ptr noundef %3) #19
  %5 = icmp eq i64 %4, 24
  br i1 %5, label %6, label %10

6:                                                ; preds = %1
  %7 = load ptr, ptr %2, align 8
  %8 = call i64 @strspn(ptr noundef %7, ptr noundef @.str.119) #19
  %9 = icmp eq i64 %8, 24
  br label %10

10:                                               ; preds = %6, %1
  %11 = phi i1 [ false, %1 ], [ %9, %6 ]
  ret i1 %11
}

; Function Attrs: nounwind uwtable
define dso_local i64 @XLogGetOldestSegno(i32 noundef %0) #0 {
  %2 = alloca i32, align 4
  %3 = alloca ptr, align 8
  %4 = alloca ptr, align 8
  %5 = alloca i64, align 8
  %6 = alloca i32, align 4
  %7 = alloca i64, align 8
  %8 = alloca i32, align 4
  store i32 %0, ptr %2, align 4
  call void @llvm.lifetime.start.p0(i64 8, ptr %3) #16
  call void @llvm.lifetime.start.p0(i64 8, ptr %4) #16
  call void @llvm.lifetime.start.p0(i64 8, ptr %5) #16
  store i64 0, ptr %5, align 8
  %9 = call ptr @AllocateDir(ptr noundef @.str.22)
  store ptr %9, ptr %3, align 8
  br label %10

10:                                               ; preds = %41, %39, %1
  %11 = load ptr, ptr %3, align 8
  %12 = call ptr @ReadDir(ptr noundef %11, ptr noundef @.str.22)
  store ptr %12, ptr %4, align 8
  %13 = icmp ne ptr %12, null
  br i1 %13, label %14, label %42

14:                                               ; preds = %10
  call void @llvm.lifetime.start.p0(i64 4, ptr %6) #16
  call void @llvm.lifetime.start.p0(i64 8, ptr %7) #16
  %15 = load ptr, ptr %4, align 8
  %16 = getelementptr inbounds nuw %struct.dirent, ptr %15, i32 0, i32 4
  %17 = getelementptr inbounds [256 x i8], ptr %16, i64 0, i64 0
  %18 = call zeroext i1 @IsXLogFileName(ptr noundef %17)
  br i1 %18, label %20, label %19

19:                                               ; preds = %14
  store i32 2, ptr %8, align 4
  br label %39, !llvm.loop !50

20:                                               ; preds = %14
  %21 = load ptr, ptr %4, align 8
  %22 = getelementptr inbounds nuw %struct.dirent, ptr %21, i32 0, i32 4
  %23 = getelementptr inbounds [256 x i8], ptr %22, i64 0, i64 0
  %24 = load i32, ptr @wal_segment_size, align 4
  call void @XLogFromFileName(ptr noundef %23, ptr noundef %6, ptr noundef %7, i32 noundef %24)
  %25 = load i32, ptr %2, align 4
  %26 = load i32, ptr %6, align 4
  %27 = icmp ne i32 %25, %26
  br i1 %27, label %28, label %29

28:                                               ; preds = %20
  store i32 2, ptr %8, align 4
  br label %39, !llvm.loop !50

29:                                               ; preds = %20
  %30 = load i64, ptr %5, align 8
  %31 = icmp eq i64 %30, 0
  br i1 %31, label %36, label %32

32:                                               ; preds = %29
  %33 = load i64, ptr %7, align 8
  %34 = load i64, ptr %5, align 8
  %35 = icmp ult i64 %33, %34
  br i1 %35, label %36, label %38

36:                                               ; preds = %32, %29
  %37 = load i64, ptr %7, align 8
  store i64 %37, ptr %5, align 8
  br label %38

38:                                               ; preds = %36, %32
  store i32 0, ptr %8, align 4
  br label %39

39:                                               ; preds = %38, %28, %19
  call void @llvm.lifetime.end.p0(i64 8, ptr %7) #16
  call void @llvm.lifetime.end.p0(i64 4, ptr %6) #16
  %40 = load i32, ptr %8, align 4
  switch i32 %40, label %46 [
    i32 0, label %41
    i32 2, label %10
  ]

41:                                               ; preds = %39
  br label %10, !llvm.loop !50

42:                                               ; preds = %10
  %43 = load ptr, ptr %3, align 8
  %44 = call i32 @FreeDir(ptr noundef %43)
  %45 = load i64, ptr %5, align 8
  store i32 1, ptr %8, align 4
  call void @llvm.lifetime.end.p0(i64 8, ptr %5) #16
  call void @llvm.lifetime.end.p0(i64 8, ptr %4) #16
  call void @llvm.lifetime.end.p0(i64 8, ptr %3) #16
  ret i64 %45

46:                                               ; preds = %39
  unreachable
}