; Function Attrs: nounwind uwtable
define dso_local i64 @XLogGetOldestSegno(i32 noundef %0) local_unnamed_addr #0 {
  %2 = alloca i32, align 4
  %3 = alloca i32, align 4
  %4 = alloca i32, align 4
  %5 = tail call ptr @AllocateDir(ptr noundef nonnull @.str.22) #26
  %6 = tail call ptr @ReadDir(ptr noundef %5, ptr noundef nonnull @.str.22) #26
  %.not11 = icmp eq ptr %6, null
  br i1 %.not11, label %._crit_edge, label %.lr.ph

.lr.ph:                                           ; preds = %1, %IsXLogFileName.exit.thread
  %7 = phi ptr [ %28, %IsXLogFileName.exit.thread ], [ %6, %1 ]
  %.012 = phi i64 [ %.1, %IsXLogFileName.exit.thread ], [ 0, %1 ]
  call void @llvm.lifetime.start.p0(i64 4, ptr nonnull %4) #26
  %8 = getelementptr inbounds nuw i8, ptr %7, i64 19
  %9 = call i64 @strlen(ptr noundef nonnull readonly dereferenceable(1) %8) #29
  %10 = icmp eq i64 %9, 24
  br i1 %10, label %IsXLogFileName.exit, label %IsXLogFileName.exit.thread

IsXLogFileName.exit:                              ; preds = %.lr.ph
  %11 = call i64 @strspn(ptr noundef nonnull readonly %8, ptr noundef nonnull @.str.119) #29
  %12 = icmp eq i64 %11, 24
  br i1 %12, label %13, label %IsXLogFileName.exit.thread, !llvm.loop !54

13:                                               ; preds = %IsXLogFileName.exit
  %14 = load i32, ptr @wal_segment_size, align 4
  call void @llvm.lifetime.start.p0(i64 4, ptr nonnull %2) #26
  call void @llvm.lifetime.start.p0(i64 4, ptr nonnull %3) #26
  %15 = call i32 (ptr, ptr, ...) @__isoc99_sscanf(ptr noundef nonnull readonly %8, ptr noundef nonnull @.str.118, ptr noundef nonnull %4, ptr noundef nonnull %2, ptr noundef nonnull %3) #26
  %16 = load i32, ptr %2, align 4
  %17 = load i32, ptr %3, align 4
  call void @llvm.lifetime.end.p0(i64 4, ptr nonnull %3) #26
  call void @llvm.lifetime.end.p0(i64 4, ptr nonnull %2) #26
  %18 = load i32, ptr %4, align 4
  %.not8 = icmp eq i32 %0, %18
  br i1 %.not8, label %19, label %IsXLogFileName.exit.thread, !llvm.loop !54

19:                                               ; preds = %13
  %20 = sext i32 %14 to i64
  %21 = udiv i64 4294967296, %20
  %22 = zext i32 %16 to i64
  %23 = mul nuw i64 %21, %22
  %24 = zext i32 %17 to i64
  %25 = add nuw i64 %23, %24
  %26 = freeze i64 %25
  %27 = add i64 %.012, -1
  %or.cond.not = icmp ult i64 %27, %26
  %.2 = select i1 %or.cond.not, i64 %.012, i64 %26
  br label %IsXLogFileName.exit.thread

IsXLogFileName.exit.thread:                       ; preds = %.lr.ph, %13, %IsXLogFileName.exit, %19
  %.1 = phi i64 [ %.2, %19 ], [ %.012, %IsXLogFileName.exit ], [ %.012, %13 ], [ %.012, %.lr.ph ]
  call void @llvm.lifetime.end.p0(i64 4, ptr nonnull %4) #26
  %28 = call ptr @ReadDir(ptr noundef %5, ptr noundef nonnull @.str.22) #26
  %.not = icmp eq ptr %28, null
  br i1 %.not, label %._crit_edge, label %.lr.ph

._crit_edge:                                      ; preds = %IsXLogFileName.exit.thread, %1
  %.0.lcssa = phi i64 [ 0, %1 ], [ %.1, %IsXLogFileName.exit.thread ]
  %29 = call i32 @FreeDir(ptr noundef %5) #26
  ret i64 %.0.lcssa
}